target datalayout = "e-m:e-p270:32:32-p271:32:32-p272:64:64-i64:64-i128:128-f80:128-n8:16:32:64-S128"
target triple = "x86_64-pc-linux-gnu"

%struct.Vec_Int_t_ = type { i32, i32, ptr }
%struct.Vec_Wec_t_ = type { i32, i32, ptr }

@.str.8 = private unnamed_addr constant [2 x i8] c"\0A\00", align 1
@.str.11 = private unnamed_addr constant [11 x i8] c"Cut %5d : \00", align 1
@.str.12 = private unnamed_addr constant [12 x i8] c"Supp = %d  \00", align 1
@.str.13 = private unnamed_addr constant [13 x i8] c"Nodes = %d  \00", align 1
@.str.14 = private unnamed_addr constant [4 x i8] c"%d \00", align 1
@.str.15 = private unnamed_addr constant [3 x i8] c"  \00", align 1

; Function Attrs: inlinehint nounwind uwtable
define internal i32 @Vec_IntSize(ptr noundef %0) #2 {
  %2 = alloca ptr, align 8
  store ptr %0, ptr %2, align 8, !tbaa !55
  %3 = load ptr, ptr %2, align 8, !tbaa !55
  %4 = getelementptr inbounds nuw %struct.Vec_Int_t_, ptr %3, i32 0, i32 1
  %5 = load i32, ptr %4, align 4, !tbaa !78
  ret i32 %5
}

; Function Attrs: inlinehint nounwind uwtable
define internal i32 @Vec_IntEntry(ptr noundef %0, i32 noundef %1) #2 {
  %3 = alloca ptr, align 8
  %4 = alloca i32, align 4
  store ptr %0, ptr %3, align 8, !tbaa !55
  store i32 %1, ptr %4, align 4, !tbaa !8
  %5 = load ptr, ptr %3, align 8, !tbaa !55
  %6 = getelementptr inbounds nuw %struct.Vec_Int_t_, ptr %5, i32 0, i32 2
  %7 = load ptr, ptr %6, align 8, !tbaa !80
  %8 = load i32, ptr %4, align 4, !tbaa !8
  %9 = sext i32 %8 to i64
  %10 = getelementptr inbounds i32, ptr %7, i64 %9
  %11 = load i32, ptr %10, align 4, !tbaa !8
  ret i32 %11
}

; Function Attrs: inlinehint nounwind uwtable
define internal ptr @Vec_WecEntry(ptr noundef %0, i32 noundef %1) #2 {
  %3 = alloca ptr, align 8
  %4 = alloca i32, align 4
  store ptr %0, ptr %3, align 8, !tbaa !82
  store i32 %1, ptr %4, align 4, !tbaa !8
  %5 = load ptr, ptr %3, align 8, !tbaa !82
  %6 = getelementptr inbounds nuw %struct.Vec_Wec_t_, ptr %5, i32 0, i32 2
  %7 = load ptr, ptr %6, align 8, !tbaa !99
  %8 = load i32, ptr %4, align 4, !tbaa !8
  %9 = sext i32 %8 to i64
  %10 = getelementptr inbounds %struct.Vec_Int_t_, ptr %7, i64 %9
  ret ptr %10
}

; Function Attrs: inlinehint nounwind uwtable
define internal i32 @Vec_WecSize(ptr noundef %0) #2 {
  %2 = alloca ptr, align 8
  store ptr %0, ptr %2, align 8, !tbaa !82
  %3 = load ptr, ptr %2, align 8, !tbaa !82
  %4 = getelementptr inbounds nuw %struct.Vec_Wec_t_, ptr %3, i32 0, i32 1
  %5 = load i32, ptr %4, align 4, !tbaa !83
  ret i32 %5
}

; Function Attrs: nounwind uwtable
define void @Gia_ManPrintWins(ptr noundef %0) #0 {
  %2 = alloca ptr, align 8
  %3 = alloca ptr, align 8
  %4 = alloca i32, align 4
  %5 = alloca i32, align 4
  %6 = alloca i32, align 4
  %7 = alloca i32, align 4
  store ptr %0, ptr %2, align 8, !tbaa !82
  call void @llvm.lifetime.start.p0(i64 8, ptr %3) #12
  call void @llvm.lifetime.start.p0(i64 4, ptr %4) #12
  call void @llvm.lifetime.start.p0(i64 4, ptr %5) #12
  call void @llvm.lifetime.start.p0(i64 4, ptr %6) #12
  store i32 0, ptr %4, align 4, !tbaa !8
  br label %8

8:                                                ; preds = %72, %1
  %9 = load i32, ptr %4, align 4, !tbaa !8
  %10 = load ptr, ptr %2, align 8, !tbaa !82
  %11 = call i32 @Vec_WecSize(ptr noundef %10)
  %12 = icmp slt i32 %9, %11
  br i1 %12, label %13, label %17

13:                                               ; preds = %8
  %14 = load ptr, ptr %2, align 8, !tbaa !82
  %15 = load i32, ptr %4, align 4, !tbaa !8
  %16 = call ptr @Vec_WecEntry(ptr noundef %14, i32 noundef %15)
  store ptr %16, ptr %3, align 8, !tbaa !55
  br label %17

17:                                               ; preds = %13, %8
  %18 = phi i1 [ false, %8 ], [ true, %13 ]
  br i1 %18, label %19, label %75

19:                                               ; preds = %17
  call void @llvm.lifetime.start.p0(i64 4, ptr %7) #12
  %20 = load ptr, ptr %3, align 8, !tbaa !55
  %21 = call i32 @Vec_IntEntry(ptr noundef %20, i32 noundef 0)
  store i32 %21, ptr %7, align 4, !tbaa !8
  %22 = load i32, ptr %4, align 4, !tbaa !8
  %23 = call i32 (ptr, ...) @printf(ptr noundef @.str.11, i32 noundef %22)
  %24 = load i32, ptr %7, align 4, !tbaa !8
  %25 = call i32 (ptr, ...) @printf(ptr noundef @.str.12, i32 noundef %24)
  %26 = load ptr, ptr %3, align 8, !tbaa !55
  %27 = call i32 @Vec_IntSize(ptr noundef %26)
  %28 = sub nsw i32 %27, 1
  %29 = load i32, ptr %7, align 4, !tbaa !8
  %30 = sub nsw i32 %28, %29
  %31 = call i32 (ptr, ...) @printf(ptr noundef @.str.13, i32 noundef %30)
  store i32 1, ptr %5, align 4, !tbaa !8
  br label %32

32:                                               ; preds = %46, %19
  %33 = load i32, ptr %5, align 4, !tbaa !8
  %34 = load i32, ptr %7, align 4, !tbaa !8
  %35 = add nsw i32 %34, 1
  %36 = icmp slt i32 %33, %35
  br i1 %36, label %37, label %41

37:                                               ; preds = %32
  %38 = load ptr, ptr %3, align 8, !tbaa !55
  %39 = load i32, ptr %5, align 4, !tbaa !8
  %40 = call i32 @Vec_IntEntry(ptr noundef %38, i32 noundef %39)
  store i32 %40, ptr %6, align 4, !tbaa !8
  br label %41

41:                                               ; preds = %37, %32
  %42 = phi i1 [ false, %32 ], [ true, %37 ]
  br i1 %42, label %43, label %49

43:                                               ; preds = %41
  %44 = load i32, ptr %6, align 4, !tbaa !8
  %45 = call i32 (ptr, ...) @printf(ptr noundef @.str.14, i32 noundef %44)
  br label %46

46:                                               ; preds = %43
  %47 = load i32, ptr %5, align 4, !tbaa !8
  %48 = add nsw i32 %47, 1
  store i32 %48, ptr %5, align 4, !tbaa !8
  br label %32, !llvm.loop !111

49:                                               ; preds = %41
  %50 = call i32 (ptr, ...) @printf(ptr noundef @.str.15)
  %51 = load i32, ptr %7, align 4, !tbaa !8
  %52 = add nsw i32 %51, 1
  store i32 %52, ptr %5, align 4, !tbaa !8
  br label %53

53:                                               ; preds = %67, %49
  %54 = load i32, ptr %5, align 4, !tbaa !8
  %55 = load ptr, ptr %3, align 8, !tbaa !55
  %56 = call i32 @Vec_IntSize(ptr noundef %55)
  %57 = icmp slt i32 %54, %56
  br i1 %57, label %58, label %62

58:                                               ; preds = %53
  %59 = load ptr, ptr %3, align 8, !tbaa !55
  %60 = load i32, ptr %5, align 4, !tbaa !8
  %61 = call i32 @Vec_IntEntry(ptr noundef %59, i32 noundef %60)
  store i32 %61, ptr %6, align 4, !tbaa !8
  br label %62

62:                                               ; preds = %58, %53
  %63 = phi i1 [ false, %53 ], [ true, %58 ]
  br i1 %63, label %64, label %70

64:                                               ; preds = %62
  %65 = load i32, ptr %6, align 4, !tbaa !8
  %66 = call i32 (ptr, ...) @printf(ptr noundef @.str.14, i32 noundef %65)
  br label %67

67:                                               ; preds = %64
  %68 = load i32, ptr %5, align 4, !tbaa !8
  %69 = add nsw i32 %68, 1
  store i32 %69, ptr %5, align 4, !tbaa !8
  br label %53, !llvm.loop !112

70:                                               ; preds = %62
  %71 = call i32 (ptr, ...) @printf(ptr noundef @.str.8)
  call void @llvm.lifetime.end.p0(i64 4, ptr %7) #12
  br label %72

72:                                               ; preds = %70
  %73 = load i32, ptr %4, align 4, !tbaa !8
  %74 = add nsw i32 %73, 1
  store i32 %74, ptr %4, align 4, !tbaa !8
  br label %8, !llvm.loop !113

75:                                               ; preds = %17
  call void @llvm.lifetime.end.p0(i64 4, ptr %6) #12
  call void @llvm.lifetime.end.p0(i64 4, ptr %5) #12
  call void @llvm.lifetime.end.p0(i64 4, ptr %4) #12
  call void @llvm.lifetime.end.p0(i64 8, ptr %3) #12
  ret void
}