; Function Attrs: nofree nounwind uwtable
define void @Gia_ManPrintWins(ptr noundef readonly captures(none) %0) local_unnamed_addr #8 {
  %2 = getelementptr i8, ptr %0, i64 4
  %.val3340 = load i32, ptr %2, align 4, !tbaa !100
  %3 = icmp sgt i32 %.val3340, 0
  br i1 %3, label %.lr.ph42, label %.critedge

.lr.ph42:                                         ; preds = %1
  %4 = getelementptr i8, ptr %0, i64 8
  br label %5

5:                                                ; preds = %.lr.ph42, %.critedge4
  %indvars.iv47 = phi i64 [ 0, %.lr.ph42 ], [ %indvars.iv.next48, %.critedge4 ]
  %.val = load ptr, ptr %4, align 8, !tbaa !34
  %6 = getelementptr inbounds nuw %struct.Vec_Int_t_, ptr %.val, i64 %indvars.iv47
  %7 = getelementptr i8, ptr %6, i64 8
  %.val30 = load ptr, ptr %7, align 8, !tbaa !36
  %8 = load i32, ptr %.val30, align 4, !tbaa !37
  %9 = trunc nuw nsw i64 %indvars.iv47 to i32
  %10 = tail call i32 (ptr, ...) @printf(ptr noundef nonnull dereferenceable(1) @.str.11, i32 noundef %9)
  %11 = tail call i32 (ptr, ...) @printf(ptr noundef nonnull dereferenceable(1) @.str.12, i32 noundef %8)
  %12 = getelementptr i8, ptr %6, i64 4
  %.val32 = load i32, ptr %12, align 4, !tbaa !89
  %13 = xor i32 %8, -1
  %14 = add i32 %.val32, %13
  %15 = tail call i32 (ptr, ...) @printf(ptr noundef nonnull dereferenceable(1) @.str.13, i32 noundef %14)
  %.not34 = icmp slt i32 %8, 1
  %.pre = add i32 %8, 1
  br i1 %.not34, label %.critedge2, label %.lr.ph.preheader

.lr.ph.preheader:                                 ; preds = %5
  %wide.trip.count = zext i32 %.pre to i64
  br label %.lr.ph

.lr.ph:                                           ; preds = %.lr.ph.preheader, %.lr.ph
  %indvars.iv = phi i64 [ 1, %.lr.ph.preheader ], [ %indvars.iv.next, %.lr.ph ]
  %.val29 = load ptr, ptr %7, align 8, !tbaa !36
  %16 = getelementptr inbounds nuw i32, ptr %.val29, i64 %indvars.iv
  %17 = load i32, ptr %16, align 4, !tbaa !37
  %18 = tail call i32 (ptr, ...) @printf(ptr noundef nonnull dereferenceable(1) @.str.14, i32 noundef %17)
  %indvars.iv.next = add nuw nsw i64 %indvars.iv, 1
  %exitcond.not = icmp eq i64 %indvars.iv.next, %wide.trip.count
  br i1 %exitcond.not, label %.critedge2, label %.lr.ph, !llvm.loop !128

.critedge2:                                       ; preds = %.lr.ph, %5
  %19 = tail call i32 (ptr, ...) @printf(ptr noundef nonnull dereferenceable(1) @.str.15)
  %.val3137 = load i32, ptr %12, align 4, !tbaa !89
  %20 = icmp slt i32 %.pre, %.val3137
  br i1 %20, label %.lr.ph39.preheader, label %.critedge4

.lr.ph39.preheader:                               ; preds = %.critedge2
  %21 = sext i32 %.pre to i64
  br label %.lr.ph39

.lr.ph39:                                         ; preds = %.lr.ph39.preheader, %.lr.ph39
  %indvars.iv44 = phi i64 [ %21, %.lr.ph39.preheader ], [ %indvars.iv.next45, %.lr.ph39 ]
  %.val28 = load ptr, ptr %7, align 8, !tbaa !36
  %22 = getelementptr inbounds i32, ptr %.val28, i64 %indvars.iv44
  %23 = load i32, ptr %22, align 4, !tbaa !37
  %24 = tail call i32 (ptr, ...) @printf(ptr noundef nonnull dereferenceable(1) @.str.14, i32 noundef %23)
  %indvars.iv.next45 = add nsw i64 %indvars.iv44, 1
  %.val31 = load i32, ptr %12, align 4, !tbaa !89
  %25 = sext i32 %.val31 to i64
  %26 = icmp slt i64 %indvars.iv.next45, %25
  br i1 %26, label %.lr.ph39, label %.critedge4, !llvm.loop !129

.critedge4:                                       ; preds = %.lr.ph39, %.critedge2
  %putchar = tail call i32 @putchar(i32 10)
  %indvars.iv.next48 = add nuw nsw i64 %indvars.iv47, 1
  %.val33 = load i32, ptr %2, align 4, !tbaa !100
  %27 = sext i32 %.val33 to i64
  %28 = icmp slt i64 %indvars.iv.next48, %27
  br i1 %28, label %5, label %.critedge, !llvm.loop !130

.critedge:                                        ; preds = %.critedge4, %1
  ret void
}